#include <math.h>
#include <stdio.h>
#include <stdlib.h>
#include <string.h>

int main(){
	char s[2][100];
	int i,l1,l2,j;
	for(i=0;i<2;i++){
		scanf("%s",s[i]);
	}
	l1=strlen(s[0]);
	l2=strlen(s[1]);
	for(i=0;i<l2;i++){
		for(j=0;j<l1;j++){
		if(s[1][i+j]!=s[0][j]){
			break;}
		}
		if(j==l1){
			printf("%d",i);
		break;}
	}

	
	return 0;
}